; Function Attrs: nounwind uwtable
define ptr @l_Lean_mkStateFromImportedEntries___at_Lean_initFn____x40_Lean_Namespace___hyg_3____spec__9(ptr noundef %0, ptr noundef %1, ptr noundef readonly captures(none) %2) local_unnamed_addr #0 {
lean_nat_lt.exit:
  %3 = getelementptr i8, ptr %2, i64 8
  %.val = load i64, ptr %3, align 8, !tbaa !12
  %.mask = and i64 %.val, 9223372036854775807
  %.not = icmp eq i64 %.mask, 0
  br i1 %.not, label %lean_dec.exit24, label %lean_dec.exit

lean_dec.exit24:                                  ; preds = %lean_nat_lt.exit
  %4 = ptrtoint ptr %0 to i64
  %5 = and i64 %4, 1
  %.not36 = icmp eq i64 %5, 0
  br i1 %.not36, label %6, label %lean_dec.exit23

6:                                                ; preds = %lean_dec.exit24
  %7 = load i32, ptr %0, align 4, !tbaa !8
  %8 = icmp sgt i32 %7, 1
  br i1 %8, label %9, label %11, !prof !11

9:                                                ; preds = %6
  %10 = add nsw i32 %7, -1
  store i32 %10, ptr %0, align 4, !tbaa !8
  br label %lean_dec.exit23

11:                                               ; preds = %6
  %.not.i25 = icmp eq i32 %7, 0
  br i1 %.not.i25, label %lean_dec.exit23, label %12

12:                                               ; preds = %11
  tail call void @lean_dec_ref_cold(ptr noundef nonnull %0) #3
  br label %lean_dec.exit23

lean_dec.exit:                                    ; preds = %lean_nat_lt.exit
  %13 = tail call ptr @l_Array_foldlMUnsafe_fold___at_Lean_initFn____x40_Lean_Namespace___hyg_3____spec__11(ptr noundef %0, ptr noundef nonnull %2, i64 noundef 0, i64 noundef %.mask, ptr noundef %1)
  br label %lean_dec.exit23

lean_dec.exit23:                                  ; preds = %lean_dec.exit24, %9, %11, %12, %lean_dec.exit
  %.0 = phi ptr [ %13, %lean_dec.exit ], [ %1, %12 ], [ %1, %11 ], [ %1, %9 ], [ %1, %lean_dec.exit24 ]
  ret ptr %.0
}